target datalayout = "e-m:e-p270:32:32-p271:32:32-p272:64:64-i64:64-i128:128-f80:128-n8:16:32:64-S128"
target triple = "x86_64-pc-linux-gnu"

%class.XServiceabilityCounters = type { [8 x i8], %class.XGenerationCounters, %class.HSpaceCounters, %class.CollectorCounters }
%class.XGenerationCounters = type { %class.GenerationCounters }
%class.GenerationCounters = type { ptr, ptr, ptr, ptr }
%class.HSpaceCounters = type { ptr, ptr, ptr }
%class.CollectorCounters = type { ptr, ptr, ptr, ptr, ptr }
%class.elapsedTimer = type <{ i64, i64, i8, [7 x i8] }>
%class.TraceMemoryManagerStats = type { ptr, i32, ptr, i8, i8, i8, i8, i8, i8, i8, i8 }
%class.XServiceabilityPauseTracer = type { i8, %class.SvcGCMarker, %class.TraceCollectorStats, %class.TraceMemoryManagerStats }
%class.SvcGCMarker = type { i8, %class.JvmtiGCMarker }
%class.JvmtiGCMarker = type { i8 }
%class.TraceCollectorStats = type { %class.PerfTraceTimedEvent, ptr }
%class.PerfTraceTimedEvent = type { %class.PerfTraceTime, ptr }
%class.PerfTraceTime = type { %class.elapsedTimer, ptr }
%class.PerfData = type { ptr, ptr, i32, i32, i8, i32, ptr, ptr }

@UsePerfData = external global i8, align 1
@_ZN5XHeap5_heapE = external global ptr, align 8

; Function Attrs: mustprogress nounwind uwtable
define linkonce_odr hidden void @_ZN16PerfLongVariable9set_valueEl(ptr noundef nonnull align 8 dereferenceable(56) %0, i64 noundef %1) #1 comdat align 2 {
  %3 = alloca ptr, align 8
  %4 = alloca i64, align 8
  store ptr %0, ptr %3, align 8
  store i64 %1, ptr %4, align 8
  %5 = load ptr, ptr %3, align 8
  %6 = load i64, ptr %4, align 8
  %7 = getelementptr inbounds %class.PerfData, ptr %5, i32 0, i32 7
  %8 = load ptr, ptr %7, align 8
  store i64 %6, ptr %8, align 8
  ret void
}

; Function Attrs: mustprogress nounwind uwtable
define linkonce_odr hidden void @_ZN19XGenerationCounters15update_capacityEm(ptr noundef nonnull align 8 dereferenceable(32) %0, i64 noundef %1) #1 comdat align 2 {
  %3 = alloca ptr, align 8
  %4 = alloca i64, align 8
  store ptr %0, ptr %3, align 8
  store i64 %1, ptr %4, align 8
  %5 = load ptr, ptr %3, align 8
  %6 = getelementptr inbounds %class.GenerationCounters, ptr %5, i32 0, i32 1
  %7 = load ptr, ptr %6, align 8
  %8 = load i64, ptr %4, align 8
  call void @_ZN16PerfLongVariable9set_valueEl(ptr noundef nonnull align 8 dereferenceable(56) %7, i64 noundef %8)
  ret void
}

; Function Attrs: mustprogress nounwind uwtable
define linkonce_odr hidden noundef i64 @_Z4MIN2ImET_S0_S0_(i64 noundef %0, i64 noundef %1) #1 comdat {
  %3 = alloca i64, align 8
  %4 = alloca i64, align 8
  store i64 %0, ptr %3, align 8
  store i64 %1, ptr %4, align 8
  %5 = load i64, ptr %3, align 8
  %6 = load i64, ptr %4, align 8
  %7 = icmp ult i64 %5, %6
  br i1 %7, label %8, label %10

8:                                                ; preds = %2
  %9 = load i64, ptr %3, align 8
  br label %12

10:                                               ; preds = %2
  %11 = load i64, ptr %4, align 8
  br label %12

12:                                               ; preds = %10, %8
  %13 = phi i64 [ %9, %8 ], [ %11, %10 ]
  ret i64 %13
}

; Function Attrs: mustprogress nounwind uwtable
define linkonce_odr hidden void @_ZN11SvcGCMarkerD2Ev(ptr noundef nonnull align 1 dereferenceable(2) %0) unnamed_addr #1 comdat align 2 {
  %2 = alloca ptr, align 8
  store ptr %0, ptr %2, align 8
  %3 = load ptr, ptr %2, align 8
  call void @_ZN15VM_GC_Operation13notify_gc_endEv()
  %4 = getelementptr inbounds %class.SvcGCMarker, ptr %3, i32 0, i32 1
  call void @_ZN13JvmtiGCMarkerD1Ev(ptr noundef nonnull align 1 dereferenceable(1) %4) #6
  ret void
}

; Function Attrs: mustprogress nounwind uwtable
define hidden void @_ZN23XServiceabilityCounters12update_sizesEv(ptr noundef nonnull align 8 dereferenceable(104) %0) #1 align 2 {
  %2 = alloca ptr, align 8
  %3 = alloca i64, align 8
  %4 = alloca i64, align 8
  store ptr %0, ptr %2, align 8
  %5 = load ptr, ptr %2, align 8
  %6 = load i8, ptr @UsePerfData, align 1
  %7 = trunc i8 %6 to i1
  br i1 %7, label %8, label %21

8:                                                ; preds = %1
  %9 = call noundef ptr @_ZN5XHeap4heapEv()
  %10 = call noundef i64 @_ZNK5XHeap8capacityEv(ptr noundef nonnull align 64 dereferenceable(4088) %9)
  store i64 %10, ptr %3, align 8
  %11 = call noundef ptr @_ZN5XHeap4heapEv()
  %12 = call noundef i64 @_ZNK5XHeap4usedEv(ptr noundef nonnull align 64 dereferenceable(4088) %11)
  %13 = load i64, ptr %3, align 8
  %14 = call noundef i64 @_Z4MIN2ImET_S0_S0_(i64 noundef %12, i64 noundef %13)
  store i64 %14, ptr %4, align 8
  %15 = getelementptr inbounds %class.XServiceabilityCounters, ptr %5, i32 0, i32 1
  %16 = load i64, ptr %3, align 8
  call void @_ZN19XGenerationCounters15update_capacityEm(ptr noundef nonnull align 8 dereferenceable(32) %15, i64 noundef %16)
  %17 = getelementptr inbounds %class.XServiceabilityCounters, ptr %5, i32 0, i32 2
  %18 = load i64, ptr %3, align 8
  call void @_ZN14HSpaceCounters15update_capacityEm(ptr noundef nonnull align 8 dereferenceable(24) %17, i64 noundef %18)
  %19 = getelementptr inbounds %class.XServiceabilityCounters, ptr %5, i32 0, i32 2
  %20 = load i64, ptr %4, align 8
  call void @_ZN14HSpaceCounters11update_usedEm(ptr noundef nonnull align 8 dereferenceable(24) %19, i64 noundef %20)
  call void @_ZN17MetaspaceCounters27update_performance_countersEv()
  br label %21

21:                                               ; preds = %8, %1
  ret void
}

; Function Attrs: mustprogress nounwind uwtable
define linkonce_odr hidden noundef ptr @_ZN5XHeap4heapEv() #1 comdat align 2 {
  %1 = load ptr, ptr @_ZN5XHeap5_heapE, align 8
  ret ptr %1
}

; Function Attrs: mustprogress nounwind uwtable
define hidden void @_ZN26XServiceabilityPauseTracerD2Ev(ptr noundef nonnull align 8 dereferenceable(88) %0) unnamed_addr #1 align 2 {
  %2 = alloca ptr, align 8
  store ptr %0, ptr %2, align 8
  %3 = load ptr, ptr %2, align 8
  %4 = call noundef ptr @_ZN5XHeap4heapEv()
  %5 = call noundef ptr @_ZN5XHeap23serviceability_countersEv(ptr noundef nonnull align 64 dereferenceable(4088) %4)
  call void @_ZN23XServiceabilityCounters12update_sizesEv(ptr noundef nonnull align 8 dereferenceable(104) %5)
  call void @_ZN13MemoryService18track_memory_usageEv()
  %6 = getelementptr inbounds %class.XServiceabilityPauseTracer, ptr %3, i32 0, i32 3
  call void @_ZN23TraceMemoryManagerStatsD1Ev(ptr noundef nonnull align 8 dereferenceable(32) %6) #6
  %7 = getelementptr inbounds %class.XServiceabilityPauseTracer, ptr %3, i32 0, i32 2
  call void @_ZN19TraceCollectorStatsD1Ev(ptr noundef nonnull align 8 dereferenceable(48) %7) #6
  %8 = getelementptr inbounds %class.XServiceabilityPauseTracer, ptr %3, i32 0, i32 1
  call void @_ZN11SvcGCMarkerD2Ev(ptr noundef nonnull align 1 dereferenceable(2) %8) #6
  ret void
}