; Function Attrs: mustprogress nounwind uwtable
define hidden void @_ZN26XServiceabilityPauseTracerD2Ev(ptr noundef nonnull align 8 dereferenceable(88) %0) unnamed_addr #0 align 2 {
  %2 = load ptr, ptr @_ZN5XHeap5_heapE, align 8
  %3 = tail call noundef ptr @_ZN5XHeap23serviceability_countersEv(ptr noundef nonnull align 64 dereferenceable(4088) %2) #8
  %4 = load i8, ptr @UsePerfData, align 1
  %5 = trunc i8 %4 to i1
  br i1 %5, label %6, label %_ZN23XServiceabilityCounters12update_sizesEv.exit

6:                                                ; preds = %1
  %7 = load ptr, ptr @_ZN5XHeap5_heapE, align 8
  %8 = tail call noundef i64 @_ZNK5XHeap8capacityEv(ptr noundef nonnull align 64 dereferenceable(4088) %7) #8
  %9 = load ptr, ptr @_ZN5XHeap5_heapE, align 8
  %10 = tail call noundef i64 @_ZNK5XHeap4usedEv(ptr noundef nonnull align 64 dereferenceable(4088) %9) #8
  %11 = tail call noundef i64 @llvm.umin.i64(i64 %10, i64 %8)
  %12 = getelementptr inbounds i8, ptr %3, i64 16
  %13 = load ptr, ptr %12, align 8
  %14 = getelementptr inbounds i8, ptr %13, i64 40
  %15 = load ptr, ptr %14, align 8
  store i64 %8, ptr %15, align 8
  %16 = getelementptr inbounds i8, ptr %3, i64 40
  tail call void @_ZN14HSpaceCounters15update_capacityEm(ptr noundef nonnull align 8 dereferenceable(24) %16, i64 noundef %8) #8
  tail call void @_ZN14HSpaceCounters11update_usedEm(ptr noundef nonnull align 8 dereferenceable(24) %16, i64 noundef %11) #8
  tail call void @_ZN17MetaspaceCounters27update_performance_countersEv() #8
  br label %_ZN23XServiceabilityCounters12update_sizesEv.exit

_ZN23XServiceabilityCounters12update_sizesEv.exit: ; preds = %1, %6
  tail call void @_ZN13MemoryService18track_memory_usageEv() #8
  %17 = getelementptr inbounds i8, ptr %0, i64 56
  tail call void @_ZN23TraceMemoryManagerStatsD1Ev(ptr noundef nonnull align 8 dereferenceable(32) %17) #8
  %18 = getelementptr inbounds i8, ptr %0, i64 8
  tail call void @_ZN19TraceCollectorStatsD1Ev(ptr noundef nonnull align 8 dereferenceable(48) %18) #8
  tail call void @_ZN15VM_GC_Operation13notify_gc_endEv() #8
  %19 = getelementptr inbounds i8, ptr %0, i64 2
  tail call void @_ZN13JvmtiGCMarkerD1Ev(ptr noundef nonnull align 1 dereferenceable(1) %19) #8
  ret void
}